; ModuleID = 'source-C-CXX/10/794.c'
source_filename = "source-C-CXX/10/794.c"
target datalayout = "e-m:e-p270:32:32-p271:32:32-p272:64:64-i64:64-f80:128-n8:16:32:64-S128"
target triple = "x86_64-pc-linux-gnu"

%struct._IO_FILE = type { i32, i8*, i8*, i8*, i8*, i8*, i8*, i8*, i8*, i8*, i8*, i8*, %struct._IO_marker*, %struct._IO_FILE*, i32, i32, i64, i16, i8, [1 x i8], i8*, i64, %struct._IO_codecvt*, %struct._IO_wide_data*, %struct._IO_FILE*, i8*, i64, i32, [20 x i8] }
%struct._IO_marker = type opaque
%struct._IO_codecvt = type opaque
%struct._IO_wide_data = type opaque

@__const.main.a = private unnamed_addr constant [13 x i32] [i32 0, i32 31, i32 28, i32 31, i32 30, i32 31, i32 30, i32 31, i32 31, i32 30, i32 31, i32 30, i32 31], align 16
@__const.main.b = private unnamed_addr constant [13 x i32] [i32 0, i32 31, i32 29, i32 31, i32 30, i32 31, i32 30, i32 31, i32 31, i32 30, i32 31, i32 30, i32 31], align 16
@.str = private unnamed_addr constant [7 x i8] c"%d%d%d\00", align 1
@.str.1 = private unnamed_addr constant [3 x i8] c"%d\00", align 1
@stdin = external local_unnamed_addr global %struct._IO_FILE*, align 8

; Function Attrs: nofree nounwind sspstrong uwtable
define dso_local i32 @main() local_unnamed_addr #0 {
  %1 = alloca i32, align 4
  %2 = alloca i32, align 4
  %3 = alloca i32, align 4
  %4 = bitcast i32* %1 to i8*
  call void @llvm.lifetime.start.p0i8(i64 4, i8* nonnull %4) #5
  %5 = bitcast i32* %2 to i8*
  call void @llvm.lifetime.start.p0i8(i64 4, i8* nonnull %5) #5
  %6 = bitcast i32* %3 to i8*
  call void @llvm.lifetime.start.p0i8(i64 4, i8* nonnull %6) #5
  %7 = call i32 (i8*, ...) @__isoc99_scanf(i8* getelementptr inbounds ([7 x i8], [7 x i8]* @.str, i64 0, i64 0), i32* nonnull %1, i32* nonnull %2, i32* nonnull %3)
  %8 = load i32, i32* %1, align 4, !tbaa !5
  %9 = srem i32 %8, 400
  %10 = icmp eq i32 %9, 0
  br i1 %10, label %17, label %11

11:                                               ; preds = %0
  %12 = srem i32 %8, 100
  %13 = icmp ne i32 %12, 0
  %14 = and i32 %8, 3
  %15 = icmp eq i32 %14, 0
  %16 = and i1 %13, %15
  br i1 %16, label %17, label %117

17:                                               ; preds = %0, %11
  %18 = load i32, i32* %3, align 4, !tbaa !5
  %19 = load i32, i32* %2, align 4, !tbaa !5
  %20 = icmp sgt i32 %19, 0
  br i1 %20, label %21, label %217

21:                                               ; preds = %17
  %22 = zext i32 %19 to i64
  %23 = icmp ult i32 %19, 8
  br i1 %23, label %106, label %24

24:                                               ; preds = %21
  %25 = and i64 %22, 4294967288
  %26 = insertelement <4 x i32> <i32 poison, i32 0, i32 0, i32 0>, i32 %18, i32 0
  %27 = add nsw i64 %25, -8
  %28 = lshr exact i64 %27, 3
  %29 = add nuw nsw i64 %28, 1
  %30 = and i64 %29, 3
  %31 = icmp ult i64 %27, 24
  br i1 %31, label %77, label %32

32:                                               ; preds = %24
  %33 = and i64 %29, 4611686018427387900
  br label %34

34:                                               ; preds = %34, %32
  %35 = phi i64 [ 0, %32 ], [ %74, %34 ]
  %36 = phi <4 x i32> [ %26, %32 ], [ %72, %34 ]
  %37 = phi <4 x i32> [ zeroinitializer, %32 ], [ %73, %34 ]
  %38 = phi i64 [ %33, %32 ], [ %75, %34 ]
  %39 = getelementptr inbounds [13 x i32], [13 x i32]* @__const.main.b, i64 0, i64 %35
  %40 = bitcast i32* %39 to <4 x i32>*
  %41 = load <4 x i32>, <4 x i32>* %40, align 16, !tbaa !5
  %42 = getelementptr inbounds i32, i32* %39, i64 4
  %43 = bitcast i32* %42 to <4 x i32>*
  %44 = load <4 x i32>, <4 x i32>* %43, align 16, !tbaa !5
  %45 = add <4 x i32> %41, %36
  %46 = add <4 x i32> %44, %37
  %47 = or i64 %35, 8
  %48 = getelementptr inbounds [13 x i32], [13 x i32]* @__const.main.b, i64 0, i64 %47
  %49 = bitcast i32* %48 to <4 x i32>*
  %50 = load <4 x i32>, <4 x i32>* %49, align 16, !tbaa !5
  %51 = getelementptr inbounds i32, i32* %48, i64 4
  %52 = bitcast i32* %51 to <4 x i32>*
  %53 = load <4 x i32>, <4 x i32>* %52, align 16, !tbaa !5
  %54 = add <4 x i32> %50, %45
  %55 = add <4 x i32> %53, %46
  %56 = or i64 %35, 16
  %57 = getelementptr inbounds [13 x i32], [13 x i32]* @__const.main.b, i64 0, i64 %56
  %58 = bitcast i32* %57 to <4 x i32>*
  %59 = load <4 x i32>, <4 x i32>* %58, align 16, !tbaa !5
  %60 = getelementptr inbounds i32, i32* %57, i64 4
  %61 = bitcast i32* %60 to <4 x i32>*
  %62 = load <4 x i32>, <4 x i32>* %61, align 16, !tbaa !5
  %63 = add <4 x i32> %59, %54
  %64 = add <4 x i32> %62, %55
  %65 = or i64 %35, 24
  %66 = getelementptr inbounds [13 x i32], [13 x i32]* @__const.main.b, i64 0, i64 %65
  %67 = bitcast i32* %66 to <4 x i32>*
  %68 = load <4 x i32>, <4 x i32>* %67, align 16, !tbaa !5
  %69 = getelementptr inbounds i32, i32* %66, i64 4
  %70 = bitcast i32* %69 to <4 x i32>*
  %71 = load <4 x i32>, <4 x i32>* %70, align 16, !tbaa !5
  %72 = add <4 x i32> %68, %63
  %73 = add <4 x i32> %71, %64
  %74 = add nuw i64 %35, 32
  %75 = add i64 %38, -4
  %76 = icmp eq i64 %75, 0
  br i1 %76, label %77, label %34, !llvm.loop !9

77:                                               ; preds = %34, %24
  %78 = phi <4 x i32> [ undef, %24 ], [ %72, %34 ]
  %79 = phi <4 x i32> [ undef, %24 ], [ %73, %34 ]
  %80 = phi i64 [ 0, %24 ], [ %74, %34 ]
  %81 = phi <4 x i32> [ %26, %24 ], [ %72, %34 ]
  %82 = phi <4 x i32> [ zeroinitializer, %24 ], [ %73, %34 ]
  %83 = icmp eq i64 %30, 0
  br i1 %83, label %100, label %84

84:                                               ; preds = %77, %84
  %85 = phi i64 [ %97, %84 ], [ %80, %77 ]
  %86 = phi <4 x i32> [ %95, %84 ], [ %81, %77 ]
  %87 = phi <4 x i32> [ %96, %84 ], [ %82, %77 ]
  %88 = phi i64 [ %98, %84 ], [ %30, %77 ]
  %89 = getelementptr inbounds [13 x i32], [13 x i32]* @__const.main.b, i64 0, i64 %85
  %90 = bitcast i32* %89 to <4 x i32>*
  %91 = load <4 x i32>, <4 x i32>* %90, align 16, !tbaa !5
  %92 = getelementptr inbounds i32, i32* %89, i64 4
  %93 = bitcast i32* %92 to <4 x i32>*
  %94 = load <4 x i32>, <4 x i32>* %93, align 16, !tbaa !5
  %95 = add <4 x i32> %91, %86
  %96 = add <4 x i32> %94, %87
  %97 = add nuw i64 %85, 8
  %98 = add i64 %88, -1
  %99 = icmp eq i64 %98, 0
  br i1 %99, label %100, label %84, !llvm.loop !12

100:                                              ; preds = %84, %77
  %101 = phi <4 x i32> [ %78, %77 ], [ %95, %84 ]
  %102 = phi <4 x i32> [ %79, %77 ], [ %96, %84 ]
  %103 = add <4 x i32> %102, %101
  %104 = call i32 @llvm.vector.reduce.add.v4i32(<4 x i32> %103)
  %105 = icmp eq i64 %25, %22
  br i1 %105, label %217, label %106

106:                                              ; preds = %21, %100
  %107 = phi i64 [ 0, %21 ], [ %25, %100 ]
  %108 = phi i32 [ %18, %21 ], [ %104, %100 ]
  br label %109

109:                                              ; preds = %106, %109
  %110 = phi i64 [ %115, %109 ], [ %107, %106 ]
  %111 = phi i32 [ %114, %109 ], [ %108, %106 ]
  %112 = getelementptr inbounds [13 x i32], [13 x i32]* @__const.main.b, i64 0, i64 %110
  %113 = load i32, i32* %112, align 4, !tbaa !5
  %114 = add nsw i32 %113, %111
  %115 = add nuw nsw i64 %110, 1
  %116 = icmp eq i64 %115, %22
  br i1 %116, label %217, label %109, !llvm.loop !14

117:                                              ; preds = %11
  %118 = load i32, i32* %3, align 4, !tbaa !5
  %119 = load i32, i32* %2, align 4, !tbaa !5
  %120 = icmp sgt i32 %119, 0
  br i1 %120, label %121, label %217

121:                                              ; preds = %117
  %122 = zext i32 %119 to i64
  %123 = icmp ult i32 %119, 8
  br i1 %123, label %206, label %124

124:                                              ; preds = %121
  %125 = and i64 %122, 4294967288
  %126 = insertelement <4 x i32> <i32 poison, i32 0, i32 0, i32 0>, i32 %118, i32 0
  %127 = add nsw i64 %125, -8
  %128 = lshr exact i64 %127, 3
  %129 = add nuw nsw i64 %128, 1
  %130 = and i64 %129, 3
  %131 = icmp ult i64 %127, 24
  br i1 %131, label %177, label %132

132:                                              ; preds = %124
  %133 = and i64 %129, 4611686018427387900
  br label %134

134:                                              ; preds = %134, %132
  %135 = phi i64 [ 0, %132 ], [ %174, %134 ]
  %136 = phi <4 x i32> [ %126, %132 ], [ %172, %134 ]
  %137 = phi <4 x i32> [ zeroinitializer, %132 ], [ %173, %134 ]
  %138 = phi i64 [ %133, %132 ], [ %175, %134 ]
  %139 = getelementptr inbounds [13 x i32], [13 x i32]* @__const.main.a, i64 0, i64 %135
  %140 = bitcast i32* %139 to <4 x i32>*
  %141 = load <4 x i32>, <4 x i32>* %140, align 16, !tbaa !5
  %142 = getelementptr inbounds i32, i32* %139, i64 4
  %143 = bitcast i32* %142 to <4 x i32>*
  %144 = load <4 x i32>, <4 x i32>* %143, align 16, !tbaa !5
  %145 = add <4 x i32> %141, %136
  %146 = add <4 x i32> %144, %137
  %147 = or i64 %135, 8
  %148 = getelementptr inbounds [13 x i32], [13 x i32]* @__const.main.a, i64 0, i64 %147
  %149 = bitcast i32* %148 to <4 x i32>*
  %150 = load <4 x i32>, <4 x i32>* %149, align 16, !tbaa !5
  %151 = getelementptr inbounds i32, i32* %148, i64 4
  %152 = bitcast i32* %151 to <4 x i32>*
  %153 = load <4 x i32>, <4 x i32>* %152, align 16, !tbaa !5
  %154 = add <4 x i32> %150, %145
  %155 = add <4 x i32> %153, %146
  %156 = or i64 %135, 16
  %157 = getelementptr inbounds [13 x i32], [13 x i32]* @__const.main.a, i64 0, i64 %156
  %158 = bitcast i32* %157 to <4 x i32>*
  %159 = load <4 x i32>, <4 x i32>* %158, align 16, !tbaa !5
  %160 = getelementptr inbounds i32, i32* %157, i64 4
  %161 = bitcast i32* %160 to <4 x i32>*
  %162 = load <4 x i32>, <4 x i32>* %161, align 16, !tbaa !5
  %163 = add <4 x i32> %159, %154
  %164 = add <4 x i32> %162, %155
  %165 = or i64 %135, 24
  %166 = getelementptr inbounds [13 x i32], [13 x i32]* @__const.main.a, i64 0, i64 %165
  %167 = bitcast i32* %166 to <4 x i32>*
  %168 = load <4 x i32>, <4 x i32>* %167, align 16, !tbaa !5
  %169 = getelementptr inbounds i32, i32* %166, i64 4
  %170 = bitcast i32* %169 to <4 x i32>*
  %171 = load <4 x i32>, <4 x i32>* %170, align 16, !tbaa !5
  %172 = add <4 x i32> %168, %163
  %173 = add <4 x i32> %171, %164
  %174 = add nuw i64 %135, 32
  %175 = add i64 %138, -4
  %176 = icmp eq i64 %175, 0
  br i1 %176, label %177, label %134, !llvm.loop !16

177:                                              ; preds = %134, %124
  %178 = phi <4 x i32> [ undef, %124 ], [ %172, %134 ]
  %179 = phi <4 x i32> [ undef, %124 ], [ %173, %134 ]
  %180 = phi i64 [ 0, %124 ], [ %174, %134 ]
  %181 = phi <4 x i32> [ %126, %124 ], [ %172, %134 ]
  %182 = phi <4 x i32> [ zeroinitializer, %124 ], [ %173, %134 ]
  %183 = icmp eq i64 %130, 0
  br i1 %183, label %200, label %184

184:                                              ; preds = %177, %184
  %185 = phi i64 [ %197, %184 ], [ %180, %177 ]
  %186 = phi <4 x i32> [ %195, %184 ], [ %181, %177 ]
  %187 = phi <4 x i32> [ %196, %184 ], [ %182, %177 ]
  %188 = phi i64 [ %198, %184 ], [ %130, %177 ]
  %189 = getelementptr inbounds [13 x i32], [13 x i32]* @__const.main.a, i64 0, i64 %185
  %190 = bitcast i32* %189 to <4 x i32>*
  %191 = load <4 x i32>, <4 x i32>* %190, align 16, !tbaa !5
  %192 = getelementptr inbounds i32, i32* %189, i64 4
  %193 = bitcast i32* %192 to <4 x i32>*
  %194 = load <4 x i32>, <4 x i32>* %193, align 16, !tbaa !5
  %195 = add <4 x i32> %191, %186
  %196 = add <4 x i32> %194, %187
  %197 = add nuw i64 %185, 8
  %198 = add i64 %188, -1
  %199 = icmp eq i64 %198, 0
  br i1 %199, label %200, label %184, !llvm.loop !17

200:                                              ; preds = %184, %177
  %201 = phi <4 x i32> [ %178, %177 ], [ %195, %184 ]
  %202 = phi <4 x i32> [ %179, %177 ], [ %196, %184 ]
  %203 = add <4 x i32> %202, %201
  %204 = call i32 @llvm.vector.reduce.add.v4i32(<4 x i32> %203)
  %205 = icmp eq i64 %125, %122
  br i1 %205, label %217, label %206

206:                                              ; preds = %121, %200
  %207 = phi i64 [ 0, %121 ], [ %125, %200 ]
  %208 = phi i32 [ %118, %121 ], [ %204, %200 ]
  br label %209

209:                                              ; preds = %206, %209
  %210 = phi i64 [ %215, %209 ], [ %207, %206 ]
  %211 = phi i32 [ %214, %209 ], [ %208, %206 ]
  %212 = getelementptr inbounds [13 x i32], [13 x i32]* @__const.main.a, i64 0, i64 %210
  %213 = load i32, i32* %212, align 4, !tbaa !5
  %214 = add nsw i32 %213, %211
  %215 = add nuw nsw i64 %210, 1
  %216 = icmp eq i64 %215, %122
  br i1 %216, label %217, label %209, !llvm.loop !18

217:                                              ; preds = %209, %109, %200, %100, %117, %17
  %218 = phi i32 [ %18, %17 ], [ %118, %117 ], [ %104, %100 ], [ %204, %200 ], [ %114, %109 ], [ %214, %209 ]
  %219 = call i32 (i8*, ...) @printf(i8* nonnull dereferenceable(1) getelementptr inbounds ([3 x i8], [3 x i8]* @.str.1, i64 0, i64 0), i32 %218)
  %220 = load %struct._IO_FILE*, %struct._IO_FILE** @stdin, align 8, !tbaa !19
  %221 = call i32 @getc(%struct._IO_FILE* %220) #5
  %222 = load %struct._IO_FILE*, %struct._IO_FILE** @stdin, align 8, !tbaa !19
  %223 = call i32 @getc(%struct._IO_FILE* %222) #5
  call void @llvm.lifetime.end.p0i8(i64 4, i8* nonnull %6) #5
  call void @llvm.lifetime.end.p0i8(i64 4, i8* nonnull %5) #5
  call void @llvm.lifetime.end.p0i8(i64 4, i8* nonnull %4) #5
  ret i32 0
}

; Function Attrs: argmemonly mustprogress nofree nosync nounwind willreturn
declare void @llvm.lifetime.start.p0i8(i64 immarg, i8* nocapture) #1

; Function Attrs: nofree nounwind
declare noundef i32 @__isoc99_scanf(i8* nocapture noundef readonly, ...) local_unnamed_addr #2

; Function Attrs: mustprogress nofree norecurse nosync nounwind readnone sspstrong uwtable willreturn
define dso_local i32 @test(i32 %0) local_unnamed_addr #3 {
  %2 = srem i32 %0, 400
  %3 = icmp eq i32 %2, 0
  br i1 %3, label %11, label %4

4:                                                ; preds = %1
  %5 = srem i32 %0, 100
  %6 = icmp ne i32 %5, 0
  %7 = and i32 %0, 3
  %8 = icmp eq i32 %7, 0
  %9 = and i1 %6, %8
  %10 = zext i1 %9 to i32
  br label %11

11:                                               ; preds = %4, %1
  %12 = phi i32 [ 1, %1 ], [ %10, %4 ]
  ret i32 %12
}

; Function Attrs: nofree nounwind
declare noundef i32 @printf(i8* nocapture noundef readonly, ...) local_unnamed_addr #2

; Function Attrs: argmemonly mustprogress nofree nosync nounwind willreturn
declare void @llvm.lifetime.end.p0i8(i64 immarg, i8* nocapture) #1

; Function Attrs: nofree nounwind
declare noundef i32 @getc(%struct._IO_FILE* nocapture noundef) local_unnamed_addr #2

; Function Attrs: nofree nosync nounwind readnone willreturn
declare i32 @llvm.vector.reduce.add.v4i32(<4 x i32>) #4


!llvm.module.flags = !{!0, !1, !2, !3}
!llvm.ident = !{!4}

!0 = !{i32 1, !"wchar_size", i32 4}
!1 = !{i32 7, !"PIC Level", i32 2}
!2 = !{i32 7, !"PIE Level", i32 2}
!3 = !{i32 7, !"uwtable", i32 1}
!4 = !{!"clang version 13.0.0"}
!5 = !{!6, !6, i64 0}
!6 = !{!"int", !7, i64 0}
!7 = !{!"omnipotent char", !8, i64 0}
!8 = !{!"Simple C/C++ TBAA"}
!9 = distinct !{!9, !10, !11}
!10 = !{!"llvm.loop.mustprogress"}
!11 = !{!"llvm.loop.isvectorized", i32 1}
!12 = distinct !{!12, !13}
!13 = !{!"llvm.loop.unroll.disable"}
!14 = distinct !{!14, !10, !15, !11}
!15 = !{!"llvm.loop.unroll.runtime.disable"}
!16 = distinct !{!16, !10, !11}
!17 = distinct !{!17, !13}
!18 = distinct !{!18, !10, !15, !11}
!19 = !{!20, !20, i64 0}
!20 = !{!"any pointer", !7, i64 0}
